target datalayout = "e-m:e-p270:32:32-p271:32:32-p272:64:64-i64:64-i128:128-f80:128-n8:16:32:64-S128"
target triple = "x86_64-pc-linux-gnu"

%struct.async_ctrs = type { i32, i32 }

; Function Attrs: nounwind uwtable
define internal i32 @async_read(ptr noundef %0, ptr noundef %1, i32 noundef %2) #0 {
  %4 = alloca i32, align 4
  %5 = alloca ptr, align 8
  %6 = alloca ptr, align 8
  %7 = alloca i32, align 4
  %8 = alloca ptr, align 8
  %9 = alloca i32, align 4
  %10 = alloca ptr, align 8
  %11 = alloca i32, align 4
  store ptr %0, ptr %5, align 8, !tbaa !15
  store ptr %1, ptr %6, align 8, !tbaa !4
  store i32 %2, ptr %7, align 4, !tbaa !9
  call void @llvm.lifetime.start.p0(i64 8, ptr %8) #6
  call void @llvm.lifetime.start.p0(i64 4, ptr %9) #6
  store i32 0, ptr %9, align 4, !tbaa !9
  call void @llvm.lifetime.start.p0(i64 8, ptr %10) #6
  %12 = load ptr, ptr %5, align 8, !tbaa !15
  %13 = call ptr @BIO_next(ptr noundef %12)
  store ptr %13, ptr %10, align 8, !tbaa !15
  %14 = load i32, ptr %7, align 4, !tbaa !9
  %15 = icmp sle i32 %14, 0
  br i1 %15, label %16, label %17

16:                                               ; preds = %3
  store i32 0, ptr %4, align 4
  store i32 1, ptr %11, align 4
  br label %52

17:                                               ; preds = %3
  %18 = load ptr, ptr %10, align 8, !tbaa !15
  %19 = icmp eq ptr %18, null
  br i1 %19, label %20, label %21

20:                                               ; preds = %17
  store i32 0, ptr %4, align 4
  store i32 1, ptr %11, align 4
  br label %52

21:                                               ; preds = %17
  %22 = load ptr, ptr %5, align 8, !tbaa !15
  %23 = call ptr @BIO_get_data(ptr noundef %22)
  store ptr %23, ptr %8, align 8, !tbaa !25
  %24 = load ptr, ptr %5, align 8, !tbaa !15
  call void @BIO_clear_flags(ptr noundef %24, i32 noundef 15)
  %25 = load ptr, ptr %8, align 8, !tbaa !25
  %26 = getelementptr inbounds nuw %struct.async_ctrs, ptr %25, i32 0, i32 0
  %27 = load i32, ptr %26, align 4, !tbaa !34
  %28 = icmp ugt i32 %27, 0
  br i1 %28, label %29, label %44

29:                                               ; preds = %21
  %30 = load ptr, ptr %10, align 8, !tbaa !15
  %31 = load ptr, ptr %6, align 8, !tbaa !4
  %32 = call i32 @BIO_read(ptr noundef %30, ptr noundef %31, i32 noundef 1)
  store i32 %32, ptr %9, align 4, !tbaa !9
  %33 = load i32, ptr %9, align 4, !tbaa !9
  %34 = icmp sle i32 %33, 0
  br i1 %34, label %35, label %41

35:                                               ; preds = %29
  %36 = load ptr, ptr %10, align 8, !tbaa !15
  %37 = call i32 @BIO_test_flags(ptr noundef %36, i32 noundef 1)
  %38 = icmp ne i32 %37, 0
  br i1 %38, label %39, label %41

39:                                               ; preds = %35
  %40 = load ptr, ptr %5, align 8, !tbaa !15
  call void @BIO_set_flags(ptr noundef %40, i32 noundef 9)
  br label %41

41:                                               ; preds = %39, %35, %29
  %42 = load ptr, ptr %8, align 8, !tbaa !25
  %43 = getelementptr inbounds nuw %struct.async_ctrs, ptr %42, i32 0, i32 0
  store i32 0, ptr %43, align 4, !tbaa !34
  br label %50

44:                                               ; preds = %21
  %45 = load ptr, ptr %8, align 8, !tbaa !25
  %46 = getelementptr inbounds nuw %struct.async_ctrs, ptr %45, i32 0, i32 0
  %47 = load i32, ptr %46, align 4, !tbaa !34
  %48 = add i32 %47, 1
  store i32 %48, ptr %46, align 4, !tbaa !34
  %49 = load ptr, ptr %5, align 8, !tbaa !15
  call void @BIO_set_flags(ptr noundef %49, i32 noundef 9)
  br label %50

50:                                               ; preds = %44, %41
  %51 = load i32, ptr %9, align 4, !tbaa !9
  store i32 %51, ptr %4, align 4
  store i32 1, ptr %11, align 4
  br label %52

52:                                               ; preds = %50, %20, %16
  call void @llvm.lifetime.end.p0(i64 8, ptr %10) #6
  call void @llvm.lifetime.end.p0(i64 4, ptr %9) #6
  call void @llvm.lifetime.end.p0(i64 8, ptr %8) #6
  %53 = load i32, ptr %4, align 4
  ret i32 %53
}