; Function Attrs: nounwind uwtable
define internal i32 @async_read(ptr noundef %0, ptr noundef %1, i32 noundef %2) #1 {
  %4 = tail call ptr @BIO_next(ptr noundef %0) #6
  %5 = icmp slt i32 %2, 1
  %6 = icmp eq ptr %4, null
  %or.cond = select i1 %5, i1 true, i1 %6
  br i1 %or.cond, label %18, label %7

7:                                                ; preds = %3
  %8 = tail call ptr @BIO_get_data(ptr noundef %0) #6
  tail call void @BIO_clear_flags(ptr noundef %0, i32 noundef 15) #6
  %9 = load i32, ptr %8, align 4, !tbaa !25
  %.not = icmp eq i32 %9, 0
  br i1 %.not, label %17, label %10

10:                                               ; preds = %7
  %11 = tail call i32 @BIO_read(ptr noundef nonnull %4, ptr noundef %1, i32 noundef 1) #6
  %12 = icmp slt i32 %11, 1
  br i1 %12, label %13, label %16

13:                                               ; preds = %10
  %14 = tail call i32 @BIO_test_flags(ptr noundef nonnull %4, i32 noundef 1) #6
  %.not18 = icmp eq i32 %14, 0
  br i1 %.not18, label %16, label %15

15:                                               ; preds = %13
  tail call void @BIO_set_flags(ptr noundef %0, i32 noundef 9) #6
  br label %16

16:                                               ; preds = %15, %13, %10
  store i32 0, ptr %8, align 4, !tbaa !25
  br label %18

17:                                               ; preds = %7
  store i32 1, ptr %8, align 4, !tbaa !25
  tail call void @BIO_set_flags(ptr noundef %0, i32 noundef 9) #6
  br label %18

18:                                               ; preds = %16, %17, %3
  %.0 = phi i32 [ 0, %3 ], [ %11, %16 ], [ 0, %17 ]
  ret i32 %.0
}